target datalayout = "e-m:e-p270:32:32-p271:32:32-p272:64:64-i64:64-i128:128-f80:128-n8:16:32:64-S128"
target triple = "x86_64-pc-linux-gnu"

%"class.gmx::internal::AnalysisNeighborhoodSearchImpl" = type { i8, float, float, i8, i32, ptr, ptr, ptr, ptr, %struct.t_pbc, i8, i8, [3 x i8], %"class.std::vector", [3 x float], [3 x float], [3 x float], float, float, float, [3 x i32], %"class.std::vector.0", %"class.std::mutex", %"class.std::vector.5" }
%struct.t_pbc = type { i32, i32, i32, i32, [3 x [3 x float]], [3 x float], [3 x float], [3 x float], float, i32, [12 x [3 x i32]], [12 x [3 x float]] }
%"class.std::vector" = type { %"struct.std::_Vector_base" }
%"struct.std::_Vector_base" = type { %"struct.std::_Vector_base<gmx::BasicVector<float>, std::allocator<gmx::BasicVector<float>>>::_Vector_impl" }
%"struct.std::_Vector_base<gmx::BasicVector<float>, std::allocator<gmx::BasicVector<float>>>::_Vector_impl" = type { %"struct.std::_Vector_base<gmx::BasicVector<float>, std::allocator<gmx::BasicVector<float>>>::_Vector_impl_data" }
%"struct.std::_Vector_base<gmx::BasicVector<float>, std::allocator<gmx::BasicVector<float>>>::_Vector_impl_data" = type { ptr, ptr, ptr }
%"class.std::vector.0" = type { %"struct.std::_Vector_base.1" }
%"struct.std::_Vector_base.1" = type { %"struct.std::_Vector_base<std::vector<int>, std::allocator<std::vector<int>>>::_Vector_impl" }
%"struct.std::_Vector_base<std::vector<int>, std::allocator<std::vector<int>>>::_Vector_impl" = type { %"struct.std::_Vector_base<std::vector<int>, std::allocator<std::vector<int>>>::_Vector_impl_data" }
%"struct.std::_Vector_base<std::vector<int>, std::allocator<std::vector<int>>>::_Vector_impl_data" = type { ptr, ptr, ptr }
%"class.std::mutex" = type { %"class.std::__mutex_base" }
%"class.std::__mutex_base" = type { %union.pthread_mutex_t }
%union.pthread_mutex_t = type { %struct.__pthread_mutex_s }
%struct.__pthread_mutex_s = type { i32, i32, i32, i32, i32, i16, i16, %struct.__pthread_internal_list }
%struct.__pthread_internal_list = type { ptr, ptr }
%"class.std::vector.5" = type { %"struct.std::_Vector_base.6" }
%"struct.std::_Vector_base.6" = type { %"struct.std::_Vector_base<std::shared_ptr<gmx::internal::AnalysisNeighborhoodPairSearchImpl>, std::allocator<std::shared_ptr<gmx::internal::AnalysisNeighborhoodPairSearchImpl>>>::_Vector_impl" }
%"struct.std::_Vector_base<std::shared_ptr<gmx::internal::AnalysisNeighborhoodPairSearchImpl>, std::allocator<std::shared_ptr<gmx::internal::AnalysisNeighborhoodPairSearchImpl>>>::_Vector_impl" = type { %"struct.std::_Vector_base<std::shared_ptr<gmx::internal::AnalysisNeighborhoodPairSearchImpl>, std::allocator<std::shared_ptr<gmx::internal::AnalysisNeighborhoodPairSearchImpl>>>::_Vector_impl_data" }
%"struct.std::_Vector_base<std::shared_ptr<gmx::internal::AnalysisNeighborhoodPairSearchImpl>, std::allocator<std::shared_ptr<gmx::internal::AnalysisNeighborhoodPairSearchImpl>>>::_Vector_impl_data" = type { ptr, ptr, ptr }

; Function Attrs: mustprogress nounwind uwtable
define linkonce_odr noundef float @_Zli5_reale(x86_fp80 noundef %0) #1 comdat {
  %2 = alloca x86_fp80, align 16
  store x86_fp80 %0, ptr %2, align 16, !tbaa !104
  %3 = load x86_fp80, ptr %2, align 16, !tbaa !104
  %4 = fptrunc x86_fp80 %3 to float
  ret float %4
}

; Function Attrs: mustprogress nounwind uwtable
define noundef i32 @_ZNK3gmx8internal30AnalysisNeighborhoodSearchImpl16getGridCellIndexEPKi(ptr noundef nonnull align 8 dereferenceable(624) %0, ptr noundef %1) #1 align 2 {
  %3 = alloca ptr, align 8
  %4 = alloca ptr, align 8
  store ptr %0, ptr %3, align 8, !tbaa !4
  store ptr %1, ptr %4, align 8, !tbaa !56
  %5 = load ptr, ptr %3, align 8
  %6 = load ptr, ptr %4, align 8, !tbaa !56
  %7 = getelementptr inbounds i32, ptr %6, i64 0
  %8 = load i32, ptr %7, align 4, !tbaa !57
  %9 = load ptr, ptr %4, align 8, !tbaa !56
  %10 = getelementptr inbounds i32, ptr %9, i64 1
  %11 = load i32, ptr %10, align 4, !tbaa !57
  %12 = getelementptr inbounds nuw %"class.gmx::internal::AnalysisNeighborhoodSearchImpl", ptr %5, i32 0, i32 20
  %13 = getelementptr inbounds [3 x i32], ptr %12, i64 0, i64 0
  %14 = load i32, ptr %13, align 8, !tbaa !57
  %15 = mul nsw i32 %11, %14
  %16 = add nsw i32 %8, %15
  %17 = load ptr, ptr %4, align 8, !tbaa !56
  %18 = getelementptr inbounds i32, ptr %17, i64 2
  %19 = load i32, ptr %18, align 4, !tbaa !57
  %20 = getelementptr inbounds nuw %"class.gmx::internal::AnalysisNeighborhoodSearchImpl", ptr %5, i32 0, i32 20
  %21 = getelementptr inbounds [3 x i32], ptr %20, i64 0, i64 0
  %22 = load i32, ptr %21, align 8, !tbaa !57
  %23 = mul nsw i32 %19, %22
  %24 = getelementptr inbounds nuw %"class.gmx::internal::AnalysisNeighborhoodSearchImpl", ptr %5, i32 0, i32 20
  %25 = getelementptr inbounds [3 x i32], ptr %24, i64 0, i64 1
  %26 = load i32, ptr %25, align 4, !tbaa !57
  %27 = mul nsw i32 %23, %26
  %28 = add nsw i32 %16, %27
  ret i32 %28
}

; Function Attrs: inlinehint mustprogress nounwind uwtable
define internal void @_ZL8rvec_decPfPKf(ptr noundef %0, ptr noundef %1) #4 {
  %3 = alloca ptr, align 8
  %4 = alloca ptr, align 8
  %5 = alloca float, align 4
  %6 = alloca float, align 4
  %7 = alloca float, align 4
  store ptr %0, ptr %3, align 8, !tbaa !55
  store ptr %1, ptr %4, align 8, !tbaa !55
  call void @llvm.lifetime.start.p0(i64 4, ptr %5) #20
  call void @llvm.lifetime.start.p0(i64 4, ptr %6) #20
  call void @llvm.lifetime.start.p0(i64 4, ptr %7) #20
  %8 = load ptr, ptr %3, align 8, !tbaa !55
  %9 = getelementptr inbounds float, ptr %8, i64 0
  %10 = load float, ptr %9, align 4, !tbaa !9
  %11 = load ptr, ptr %4, align 8, !tbaa !55
  %12 = getelementptr inbounds float, ptr %11, i64 0
  %13 = load float, ptr %12, align 4, !tbaa !9
  %14 = fsub float %10, %13
  store float %14, ptr %5, align 4, !tbaa !9
  %15 = load ptr, ptr %3, align 8, !tbaa !55
  %16 = getelementptr inbounds float, ptr %15, i64 1
  %17 = load float, ptr %16, align 4, !tbaa !9
  %18 = load ptr, ptr %4, align 8, !tbaa !55
  %19 = getelementptr inbounds float, ptr %18, i64 1
  %20 = load float, ptr %19, align 4, !tbaa !9
  %21 = fsub float %17, %20
  store float %21, ptr %6, align 4, !tbaa !9
  %22 = load ptr, ptr %3, align 8, !tbaa !55
  %23 = getelementptr inbounds float, ptr %22, i64 2
  %24 = load float, ptr %23, align 4, !tbaa !9
  %25 = load ptr, ptr %4, align 8, !tbaa !55
  %26 = getelementptr inbounds float, ptr %25, i64 2
  %27 = load float, ptr %26, align 4, !tbaa !9
  %28 = fsub float %24, %27
  store float %28, ptr %7, align 4, !tbaa !9
  %29 = load float, ptr %5, align 4, !tbaa !9
  %30 = load ptr, ptr %3, align 8, !tbaa !55
  %31 = getelementptr inbounds float, ptr %30, i64 0
  store float %29, ptr %31, align 4, !tbaa !9
  %32 = load float, ptr %6, align 4, !tbaa !9
  %33 = load ptr, ptr %3, align 8, !tbaa !55
  %34 = getelementptr inbounds float, ptr %33, i64 1
  store float %32, ptr %34, align 4, !tbaa !9
  %35 = load float, ptr %7, align 4, !tbaa !9
  %36 = load ptr, ptr %3, align 8, !tbaa !55
  %37 = getelementptr inbounds float, ptr %36, i64 2
  store float %35, ptr %37, align 4, !tbaa !9
  call void @llvm.lifetime.end.p0(i64 4, ptr %7) #20
  call void @llvm.lifetime.end.p0(i64 4, ptr %6) #20
  call void @llvm.lifetime.end.p0(i64 4, ptr %5) #20
  ret void
}

; Function Attrs: inlinehint mustprogress nounwind uwtable
define internal void @_ZL8rvec_incPfPKf(ptr noundef %0, ptr noundef %1) #4 {
  %3 = alloca ptr, align 8
  %4 = alloca ptr, align 8
  %5 = alloca float, align 4
  %6 = alloca float, align 4
  %7 = alloca float, align 4
  store ptr %0, ptr %3, align 8, !tbaa !55
  store ptr %1, ptr %4, align 8, !tbaa !55
  call void @llvm.lifetime.start.p0(i64 4, ptr %5) #20
  call void @llvm.lifetime.start.p0(i64 4, ptr %6) #20
  call void @llvm.lifetime.start.p0(i64 4, ptr %7) #20
  %8 = load ptr, ptr %3, align 8, !tbaa !55
  %9 = getelementptr inbounds float, ptr %8, i64 0
  %10 = load float, ptr %9, align 4, !tbaa !9
  %11 = load ptr, ptr %4, align 8, !tbaa !55
  %12 = getelementptr inbounds float, ptr %11, i64 0
  %13 = load float, ptr %12, align 4, !tbaa !9
  %14 = fadd float %10, %13
  store float %14, ptr %5, align 4, !tbaa !9
  %15 = load ptr, ptr %3, align 8, !tbaa !55
  %16 = getelementptr inbounds float, ptr %15, i64 1
  %17 = load float, ptr %16, align 4, !tbaa !9
  %18 = load ptr, ptr %4, align 8, !tbaa !55
  %19 = getelementptr inbounds float, ptr %18, i64 1
  %20 = load float, ptr %19, align 4, !tbaa !9
  %21 = fadd float %17, %20
  store float %21, ptr %6, align 4, !tbaa !9
  %22 = load ptr, ptr %3, align 8, !tbaa !55
  %23 = getelementptr inbounds float, ptr %22, i64 2
  %24 = load float, ptr %23, align 4, !tbaa !9
  %25 = load ptr, ptr %4, align 8, !tbaa !55
  %26 = getelementptr inbounds float, ptr %25, i64 2
  %27 = load float, ptr %26, align 4, !tbaa !9
  %28 = fadd float %24, %27
  store float %28, ptr %7, align 4, !tbaa !9
  %29 = load float, ptr %5, align 4, !tbaa !9
  %30 = load ptr, ptr %3, align 8, !tbaa !55
  %31 = getelementptr inbounds float, ptr %30, i64 0
  store float %29, ptr %31, align 4, !tbaa !9
  %32 = load float, ptr %6, align 4, !tbaa !9
  %33 = load ptr, ptr %3, align 8, !tbaa !55
  %34 = getelementptr inbounds float, ptr %33, i64 1
  store float %32, ptr %34, align 4, !tbaa !9
  %35 = load float, ptr %7, align 4, !tbaa !9
  %36 = load ptr, ptr %3, align 8, !tbaa !55
  %37 = getelementptr inbounds float, ptr %36, i64 2
  store float %35, ptr %37, align 4, !tbaa !9
  call void @llvm.lifetime.end.p0(i64 4, ptr %7) #20
  call void @llvm.lifetime.end.p0(i64 4, ptr %6) #20
  call void @llvm.lifetime.end.p0(i64 4, ptr %5) #20
  ret void
}

; Function Attrs: inlinehint mustprogress uwtable
define internal void @_ZL10clear_rvecPf(ptr noundef %0) #3 {
  %2 = alloca ptr, align 8
  store ptr %0, ptr %2, align 8, !tbaa !55
  %3 = call noundef float @_Zli5_reale(x86_fp80 noundef 0xK00000000000000000000)
  %4 = load ptr, ptr %2, align 8, !tbaa !55
  %5 = getelementptr inbounds float, ptr %4, i64 0
  store float %3, ptr %5, align 4, !tbaa !9
  %6 = call noundef float @_Zli5_reale(x86_fp80 noundef 0xK00000000000000000000)
  %7 = load ptr, ptr %2, align 8, !tbaa !55
  %8 = getelementptr inbounds float, ptr %7, i64 1
  store float %6, ptr %8, align 4, !tbaa !9
  %9 = call noundef float @_Zli5_reale(x86_fp80 noundef 0xK00000000000000000000)
  %10 = load ptr, ptr %2, align 8, !tbaa !55
  %11 = getelementptr inbounds float, ptr %10, i64 2
  store float %9, ptr %11, align 4, !tbaa !9
  ret void
}

; Function Attrs: inlinehint mustprogress nounwind uwtable
define internal void @_ZL9copy_ivecPKiPi(ptr noundef %0, ptr noundef %1) #4 {
  %3 = alloca ptr, align 8
  %4 = alloca ptr, align 8
  store ptr %0, ptr %3, align 8, !tbaa !56
  store ptr %1, ptr %4, align 8, !tbaa !56
  %5 = load ptr, ptr %3, align 8, !tbaa !56
  %6 = getelementptr inbounds i32, ptr %5, i64 0
  %7 = load i32, ptr %6, align 4, !tbaa !57
  %8 = load ptr, ptr %4, align 8, !tbaa !56
  %9 = getelementptr inbounds i32, ptr %8, i64 0
  store i32 %7, ptr %9, align 4, !tbaa !57
  %10 = load ptr, ptr %3, align 8, !tbaa !56
  %11 = getelementptr inbounds i32, ptr %10, i64 1
  %12 = load i32, ptr %11, align 4, !tbaa !57
  %13 = load ptr, ptr %4, align 8, !tbaa !56
  %14 = getelementptr inbounds i32, ptr %13, i64 1
  store i32 %12, ptr %14, align 4, !tbaa !57
  %15 = load ptr, ptr %3, align 8, !tbaa !56
  %16 = getelementptr inbounds i32, ptr %15, i64 2
  %17 = load i32, ptr %16, align 4, !tbaa !57
  %18 = load ptr, ptr %4, align 8, !tbaa !56
  %19 = getelementptr inbounds i32, ptr %18, i64 2
  store i32 %17, ptr %19, align 4, !tbaa !57
  ret void
}

; Function Attrs: mustprogress uwtable
define noundef i32 @_ZNK3gmx8internal30AnalysisNeighborhoodSearchImpl9shiftCellEPKiPf(ptr noundef nonnull align 8 dereferenceable(624) %0, ptr noundef %1, ptr noundef %2) #0 align 2 {
  %4 = alloca ptr, align 8
  %5 = alloca ptr, align 8
  %6 = alloca ptr, align 8
  %7 = alloca [3 x i32], align 4
  %8 = alloca i32, align 4
  %9 = alloca i32, align 4
  store ptr %0, ptr %4, align 8, !tbaa !4
  store ptr %1, ptr %5, align 8, !tbaa !56
  store ptr %2, ptr %6, align 8, !tbaa !55
  %10 = load ptr, ptr %4, align 8
  call void @llvm.lifetime.start.p0(i64 12, ptr %7) #20
  %11 = load ptr, ptr %5, align 8, !tbaa !56
  %12 = getelementptr inbounds [3 x i32], ptr %7, i64 0, i64 0
  call void @_ZL9copy_ivecPKiPi(ptr noundef %11, ptr noundef %12)
  %13 = load ptr, ptr %6, align 8, !tbaa !55
  call void @_ZL10clear_rvecPf(ptr noundef %13)
  call void @llvm.lifetime.start.p0(i64 4, ptr %8) #20
  store i32 0, ptr %8, align 4, !tbaa !57
  br label %14

14:                                               ; preds = %75, %3
  %15 = load i32, ptr %8, align 4, !tbaa !57
  %16 = icmp slt i32 %15, 3
  br i1 %16, label %18, label %17

17:                                               ; preds = %14
  call void @llvm.lifetime.end.p0(i64 4, ptr %8) #20
  br label %78

18:                                               ; preds = %14
  call void @llvm.lifetime.start.p0(i64 4, ptr %9) #20
  %19 = getelementptr inbounds nuw %"class.gmx::internal::AnalysisNeighborhoodSearchImpl", ptr %10, i32 0, i32 20
  %20 = load i32, ptr %8, align 4, !tbaa !57
  %21 = sext i32 %20 to i64
  %22 = getelementptr inbounds [3 x i32], ptr %19, i64 0, i64 %21
  %23 = load i32, ptr %22, align 4, !tbaa !57
  store i32 %23, ptr %9, align 4, !tbaa !57
  %24 = getelementptr inbounds nuw %"class.gmx::internal::AnalysisNeighborhoodSearchImpl", ptr %10, i32 0, i32 12
  %25 = load i32, ptr %8, align 4, !tbaa !57
  %26 = sext i32 %25 to i64
  %27 = getelementptr inbounds [3 x i8], ptr %24, i64 0, i64 %26
  %28 = load i8, ptr %27, align 1, !tbaa !46, !range !184, !noundef !185
  %29 = trunc i8 %28 to i1
  br i1 %29, label %30, label %74

30:                                               ; preds = %18
  br label %31

31:                                               ; preds = %37, %30
  %32 = load i32, ptr %8, align 4, !tbaa !57
  %33 = sext i32 %32 to i64
  %34 = getelementptr inbounds [3 x i32], ptr %7, i64 0, i64 %33
  %35 = load i32, ptr %34, align 4, !tbaa !57
  %36 = icmp slt i32 %35, 0
  br i1 %36, label %37, label %51

37:                                               ; preds = %31
  %38 = load i32, ptr %9, align 4, !tbaa !57
  %39 = load i32, ptr %8, align 4, !tbaa !57
  %40 = sext i32 %39 to i64
  %41 = getelementptr inbounds [3 x i32], ptr %7, i64 0, i64 %40
  %42 = load i32, ptr %41, align 4, !tbaa !57
  %43 = add nsw i32 %42, %38
  store i32 %43, ptr %41, align 4, !tbaa !57
  %44 = load ptr, ptr %6, align 8, !tbaa !55
  %45 = getelementptr inbounds nuw %"class.gmx::internal::AnalysisNeighborhoodSearchImpl", ptr %10, i32 0, i32 9
  %46 = getelementptr inbounds nuw %struct.t_pbc, ptr %45, i32 0, i32 4
  %47 = load i32, ptr %8, align 4, !tbaa !57
  %48 = sext i32 %47 to i64
  %49 = getelementptr inbounds [3 x [3 x float]], ptr %46, i64 0, i64 %48
  %50 = getelementptr inbounds [3 x float], ptr %49, i64 0, i64 0
  call void @_ZL8rvec_incPfPKf(ptr noundef %44, ptr noundef %50)
  br label %31, !llvm.loop !237

51:                                               ; preds = %31
  br label %52

52:                                               ; preds = %59, %51
  %53 = load i32, ptr %8, align 4, !tbaa !57
  %54 = sext i32 %53 to i64
  %55 = getelementptr inbounds [3 x i32], ptr %7, i64 0, i64 %54
  %56 = load i32, ptr %55, align 4, !tbaa !57
  %57 = load i32, ptr %9, align 4, !tbaa !57
  %58 = icmp sge i32 %56, %57
  br i1 %58, label %59, label %73

59:                                               ; preds = %52
  %60 = load i32, ptr %9, align 4, !tbaa !57
  %61 = load i32, ptr %8, align 4, !tbaa !57
  %62 = sext i32 %61 to i64
  %63 = getelementptr inbounds [3 x i32], ptr %7, i64 0, i64 %62
  %64 = load i32, ptr %63, align 4, !tbaa !57
  %65 = sub nsw i32 %64, %60
  store i32 %65, ptr %63, align 4, !tbaa !57
  %66 = load ptr, ptr %6, align 8, !tbaa !55
  %67 = getelementptr inbounds nuw %"class.gmx::internal::AnalysisNeighborhoodSearchImpl", ptr %10, i32 0, i32 9
  %68 = getelementptr inbounds nuw %struct.t_pbc, ptr %67, i32 0, i32 4
  %69 = load i32, ptr %8, align 4, !tbaa !57
  %70 = sext i32 %69 to i64
  %71 = getelementptr inbounds [3 x [3 x float]], ptr %68, i64 0, i64 %70
  %72 = getelementptr inbounds [3 x float], ptr %71, i64 0, i64 0
  call void @_ZL8rvec_decPfPKf(ptr noundef %66, ptr noundef %72)
  br label %52, !llvm.loop !238

73:                                               ; preds = %52
  br label %74

74:                                               ; preds = %73, %18
  call void @llvm.lifetime.end.p0(i64 4, ptr %9) #20
  br label %75

75:                                               ; preds = %74
  %76 = load i32, ptr %8, align 4, !tbaa !57
  %77 = add nsw i32 %76, 1
  store i32 %77, ptr %8, align 4, !tbaa !57
  br label %14, !llvm.loop !239

78:                                               ; preds = %17
  %79 = getelementptr inbounds [3 x i32], ptr %7, i64 0, i64 0
  %80 = call noundef i32 @_ZNK3gmx8internal30AnalysisNeighborhoodSearchImpl16getGridCellIndexEPKi(ptr noundef nonnull align 8 dereferenceable(624) %10, ptr noundef %79)
  call void @llvm.lifetime.end.p0(i64 12, ptr %7) #20
  ret i32 %80
}