; Function Attrs: mustprogress nofree norecurse nosync nounwind memory(argmem: readwrite) uwtable
define noundef i32 @_ZNK3gmx8internal30AnalysisNeighborhoodSearchImpl9shiftCellEPKiPf(ptr noundef nonnull readonly align 8 captures(none) dereferenceable(624) %0, ptr noundef readonly captures(none) %1, ptr noundef writeonly captures(none) initializes((0, 12)) %2) local_unnamed_addr #19 align 2 {
  %4 = alloca [3 x i32], align 4
  call void @llvm.lifetime.start.p0(i64 12, ptr nonnull %4) #36
  %5 = load i32, ptr %1, align 4, !tbaa !39
  store i32 %5, ptr %4, align 4, !tbaa !39
  %6 = getelementptr inbounds nuw i8, ptr %1, i64 4
  %7 = load i32, ptr %6, align 4, !tbaa !39
  %8 = getelementptr inbounds nuw i8, ptr %4, i64 4
  store i32 %7, ptr %8, align 4, !tbaa !39
  %9 = getelementptr inbounds nuw i8, ptr %1, i64 8
  %10 = load i32, ptr %9, align 4, !tbaa !39
  %11 = getelementptr inbounds nuw i8, ptr %4, i64 8
  store i32 %10, ptr %11, align 4, !tbaa !39
  store float 0.000000e+00, ptr %2, align 4, !tbaa !77
  %12 = getelementptr inbounds nuw i8, ptr %2, i64 4
  store float 0.000000e+00, ptr %12, align 4, !tbaa !77
  %13 = getelementptr inbounds nuw i8, ptr %2, i64 8
  store float 0.000000e+00, ptr %13, align 4, !tbaa !77
  %14 = getelementptr inbounds nuw i8, ptr %0, i64 520
  %15 = getelementptr inbounds nuw i8, ptr %0, i64 442
  %16 = getelementptr inbounds nuw i8, ptr %0, i64 72
  br label %26

17:                                               ; preds = %.loopexit
  %18 = load i32, ptr %4, align 4, !tbaa !39
  %19 = load i32, ptr %8, align 4, !tbaa !39
  %20 = load i32, ptr %14, align 8, !tbaa !39
  %21 = load i32, ptr %11, align 4, !tbaa !39
  %22 = getelementptr inbounds nuw i8, ptr %0, i64 524
  %23 = load i32, ptr %22, align 4, !tbaa !39
  %24 = mul i32 %23, %21
  %reass.add.i = add i32 %24, %19
  %reass.mul.i = mul i32 %reass.add.i, %20
  %25 = add i32 %reass.mul.i, %18
  call void @llvm.lifetime.end.p0(i64 12, ptr nonnull %4) #36
  ret i32 %25

26:                                               ; preds = %3, %.loopexit
  %27 = phi float [ 0.000000e+00, %3 ], [ %71, %.loopexit ]
  %28 = phi float [ 0.000000e+00, %3 ], [ %72, %.loopexit ]
  %29 = phi float [ 0.000000e+00, %3 ], [ %73, %.loopexit ]
  %indvars.iv = phi i64 [ 0, %3 ], [ %indvars.iv.next, %.loopexit ]
  %30 = getelementptr inbounds nuw [3 x i32], ptr %14, i64 0, i64 %indvars.iv
  %31 = load i32, ptr %30, align 4, !tbaa !39
  %32 = getelementptr inbounds nuw [3 x i8], ptr %15, i64 0, i64 %indvars.iv
  %33 = load i8, ptr %32, align 1, !tbaa !38, !range !88, !noundef !89
  %34 = trunc nuw i8 %33 to i1
  br i1 %34, label %.preheader20, label %.loopexit

.preheader20:                                     ; preds = %26
  %35 = getelementptr inbounds nuw [3 x i32], ptr %4, i64 0, i64 %indvars.iv
  %.promoted = load i32, ptr %35, align 4, !tbaa !39
  %36 = icmp slt i32 %.promoted, 0
  br i1 %36, label %.lr.ph, label %.preheader

.lr.ph:                                           ; preds = %.preheader20
  %37 = getelementptr inbounds nuw [3 x [3 x float]], ptr %16, i64 0, i64 %indvars.iv
  %38 = getelementptr inbounds nuw i8, ptr %37, i64 4
  %39 = getelementptr inbounds nuw i8, ptr %37, i64 8
  br label %46

.preheader:                                       ; preds = %46, %.preheader20
  %40 = phi float [ %27, %.preheader20 ], [ %57, %46 ]
  %41 = phi float [ %28, %.preheader20 ], [ %55, %46 ]
  %42 = phi float [ %29, %.preheader20 ], [ %53, %46 ]
  %.lcssa21 = phi i32 [ %.promoted, %.preheader20 ], [ %51, %46 ]
  store i32 %.lcssa21, ptr %35, align 4
  %.not23 = icmp slt i32 %.lcssa21, %31
  br i1 %.not23, label %.loopexit, label %.lr.ph24

.lr.ph24:                                         ; preds = %.preheader
  %43 = getelementptr inbounds nuw [3 x [3 x float]], ptr %16, i64 0, i64 %indvars.iv
  %44 = getelementptr inbounds nuw i8, ptr %43, i64 4
  %45 = getelementptr inbounds nuw i8, ptr %43, i64 8
  br label %59

46:                                               ; preds = %.lr.ph, %46
  %47 = phi float [ %27, %.lr.ph ], [ %57, %46 ]
  %48 = phi float [ %28, %.lr.ph ], [ %55, %46 ]
  %49 = phi float [ %29, %.lr.ph ], [ %53, %46 ]
  %50 = phi i32 [ %.promoted, %.lr.ph ], [ %51, %46 ]
  %51 = add nsw i32 %50, %31
  %52 = load float, ptr %37, align 4, !tbaa !77
  %53 = fadd float %49, %52
  %54 = load float, ptr %38, align 4, !tbaa !77
  %55 = fadd float %48, %54
  %56 = load float, ptr %39, align 4, !tbaa !77
  %57 = fadd float %47, %56
  store float %53, ptr %2, align 4, !tbaa !77
  store float %55, ptr %12, align 4, !tbaa !77
  store float %57, ptr %13, align 4, !tbaa !77
  %58 = icmp slt i32 %51, 0
  br i1 %58, label %46, label %.preheader, !llvm.loop !130

59:                                               ; preds = %.lr.ph24, %59
  %60 = phi float [ %40, %.lr.ph24 ], [ %70, %59 ]
  %61 = phi float [ %41, %.lr.ph24 ], [ %68, %59 ]
  %62 = phi float [ %42, %.lr.ph24 ], [ %66, %59 ]
  %63 = phi i32 [ %.lcssa21, %.lr.ph24 ], [ %64, %59 ]
  %64 = sub nsw i32 %63, %31
  %65 = load float, ptr %43, align 4, !tbaa !77
  %66 = fsub float %62, %65
  %67 = load float, ptr %44, align 4, !tbaa !77
  %68 = fsub float %61, %67
  %69 = load float, ptr %45, align 4, !tbaa !77
  %70 = fsub float %60, %69
  store float %66, ptr %2, align 4, !tbaa !77
  store float %68, ptr %12, align 4, !tbaa !77
  store float %70, ptr %13, align 4, !tbaa !77
  %.not = icmp slt i32 %64, %31
  br i1 %.not, label %..loopexit_crit_edge, label %59, !llvm.loop !131

..loopexit_crit_edge:                             ; preds = %59
  store i32 %64, ptr %35, align 4, !tbaa !39
  br label %.loopexit

.loopexit:                                        ; preds = %.preheader, %..loopexit_crit_edge, %26
  %71 = phi float [ %40, %.preheader ], [ %70, %..loopexit_crit_edge ], [ %27, %26 ]
  %72 = phi float [ %41, %.preheader ], [ %68, %..loopexit_crit_edge ], [ %28, %26 ]
  %73 = phi float [ %42, %.preheader ], [ %66, %..loopexit_crit_edge ], [ %29, %26 ]
  %indvars.iv.next = add nuw nsw i64 %indvars.iv, 1
  %exitcond.not = icmp eq i64 %indvars.iv.next, 3
  br i1 %exitcond.not, label %17, label %26, !llvm.loop !132
}